target datalayout = "e-m:e-p270:32:32-p271:32:32-p272:64:64-i64:64-i128:128-f80:128-n8:16:32:64-S128"
target triple = "x86_64-pc-linux-gnu"

%struct.dt_pthread_mutex_t = type { %union.pthread_mutex_t }
%union.pthread_mutex_t = type { %struct.__pthread_mutex_s }
%struct.__pthread_mutex_s = type { i32, i32, i32, i32, i32, i16, i16, %struct.__pthread_internal_list }
%struct.__pthread_internal_list = type { ptr, ptr }
%struct._DtBauhausWidget = type { %struct._GtkDrawingArea, i32, ptr, ptr, i32, [256 x i8], i32, ptr, i32, ptr, ptr, i32, ptr, i32, i32, i32, %struct._GtkBorder, %struct._GtkBorder, i32, %union.dt_bauhaus_data_t }
%struct._GtkDrawingArea = type { %struct._GtkWidget, ptr }
%struct._GtkWidget = type { %struct._GObject, ptr }
%struct._GObject = type { %struct._GTypeInstance, i32, ptr }
%struct._GTypeInstance = type { ptr }
%struct._GtkBorder = type { i16, i16, i16, i16 }
%union.dt_bauhaus_data_t = type { %struct.dt_bauhaus_slider_data_t }
%struct.dt_bauhaus_slider_data_t = type { float, float, float, float, float, float, float, float, float, float, i32, ptr, i32, ptr, i8, ptr, float, float, i8, i32, ptr }
%struct.dt_bauhaus_combobox_data_t = type { i32, i32, i32, i32, ptr, i32, ptr, i32, ptr }
%struct.dt_iop_module_t = type { i32, ptr, ptr, ptr, ptr, ptr, ptr, ptr, ptr, ptr, ptr, ptr, ptr, ptr, ptr, ptr, ptr, ptr, ptr, ptr, ptr, ptr, ptr, ptr, ptr, ptr, ptr, ptr, ptr, ptr, ptr, ptr, ptr, ptr, ptr, ptr, ptr, ptr, ptr, ptr, ptr, ptr, ptr, ptr, ptr, ptr, ptr, ptr, ptr, ptr, ptr, ptr, ptr, ptr, ptr, ptr, ptr, [20 x i8], i32, i32, i32, i32, i32, i32, i32, [8 x i8], [4 x float], [4 x float], [4 x float], [4 x float], [4 x float], [4 x float], ptr, %struct.dt_dev_histogram_stats_t, [4 x i32], i32, i32, ptr, i32, i32, ptr, ptr, i32, ptr, %struct.dt_pthread_mutex_t, ptr, ptr, ptr, ptr, %struct.anon.4, ptr, ptr, ptr, ptr, ptr, ptr, ptr, i32, ptr, ptr, ptr, ptr, ptr, ptr, ptr, i32, ptr, i32, [128 x i8], i32, ptr, ptr, i32, [12 x i8] }
%struct.dt_dev_histogram_stats_t = type { i32, i64, i32, i32 }
%struct.anon.4 = type { %struct.anon.5, %struct.anon.6 }
%struct.anon.5 = type { ptr, ptr }
%struct.anon.6 = type { ptr, i32 }

@.str.48 = private unnamed_addr constant [17 x i8] c"bauhaus-combobox\00", align 1

; Function Attrs: nounwind uwtable
define ptr @dt_bauhaus_combobox_from_widget(ptr noundef %0, ptr noundef %1) #0 {
  %3 = alloca ptr, align 8
  %4 = alloca ptr, align 8
  %5 = alloca ptr, align 8
  store ptr %0, ptr %3, align 8, !tbaa !17
  store ptr %1, ptr %4, align 8, !tbaa !218
  %6 = load ptr, ptr %3, align 8, !tbaa !17
  %7 = getelementptr inbounds nuw %struct._DtBauhausWidget, ptr %6, i32 0, i32 1
  store i32 2, ptr %7, align 8, !tbaa !139
  %8 = load ptr, ptr %4, align 8, !tbaa !218
  %9 = icmp ne ptr %8, null
  br i1 %9, label %10, label %13

10:                                               ; preds = %2
  %11 = load ptr, ptr %4, align 8, !tbaa !218
  %12 = getelementptr inbounds nuw %struct.dt_iop_module_t, ptr %11, i32 0, i32 0
  br label %14

13:                                               ; preds = %2
  br label %14

14:                                               ; preds = %13, %10
  %15 = phi ptr [ %12, %10 ], [ null, %13 ]
  %16 = load ptr, ptr %3, align 8, !tbaa !17
  %17 = getelementptr inbounds nuw %struct._DtBauhausWidget, ptr %16, i32 0, i32 2
  store ptr %15, ptr %17, align 8, !tbaa !194
  call void @llvm.lifetime.start.p0(i64 8, ptr %5) #13
  %18 = load ptr, ptr %3, align 8, !tbaa !17
  %19 = getelementptr inbounds nuw %struct._DtBauhausWidget, ptr %18, i32 0, i32 19
  store ptr %19, ptr %5, align 8, !tbaa !153
  %20 = call ptr @g_ptr_array_new_full(i32 noundef 4, ptr noundef @_free_combobox_entry)
  %21 = load ptr, ptr %5, align 8, !tbaa !153
  %22 = getelementptr inbounds nuw %struct.dt_bauhaus_combobox_data_t, ptr %21, i32 0, i32 6
  store ptr %20, ptr %22, align 8, !tbaa !156
  %23 = load ptr, ptr %5, align 8, !tbaa !153
  %24 = getelementptr inbounds nuw %struct.dt_bauhaus_combobox_data_t, ptr %23, i32 0, i32 1
  store i32 -1, ptr %24, align 4, !tbaa !205
  %25 = load ptr, ptr %5, align 8, !tbaa !153
  %26 = getelementptr inbounds nuw %struct.dt_bauhaus_combobox_data_t, ptr %25, i32 0, i32 0
  store i32 -1, ptr %26, align 8, !tbaa !163
  %27 = load ptr, ptr %5, align 8, !tbaa !153
  %28 = getelementptr inbounds nuw %struct.dt_bauhaus_combobox_data_t, ptr %27, i32 0, i32 2
  store i32 0, ptr %28, align 8, !tbaa !177
  %29 = load ptr, ptr %5, align 8, !tbaa !153
  %30 = getelementptr inbounds nuw %struct.dt_bauhaus_combobox_data_t, ptr %29, i32 0, i32 3
  store i32 1, ptr %30, align 4, !tbaa !269
  %31 = load ptr, ptr %5, align 8, !tbaa !153
  %32 = getelementptr inbounds nuw %struct.dt_bauhaus_combobox_data_t, ptr %31, i32 0, i32 5
  store i32 3, ptr %32, align 8, !tbaa !172
  %33 = load ptr, ptr %5, align 8, !tbaa !153
  %34 = getelementptr inbounds nuw %struct.dt_bauhaus_combobox_data_t, ptr %33, i32 0, i32 7
  store i32 0, ptr %34, align 8, !tbaa !270
  %35 = load ptr, ptr %5, align 8, !tbaa !153
  %36 = getelementptr inbounds nuw %struct.dt_bauhaus_combobox_data_t, ptr %35, i32 0, i32 8
  store ptr null, ptr %36, align 8, !tbaa !271
  %37 = load ptr, ptr %5, align 8, !tbaa !153
  %38 = getelementptr inbounds nuw %struct.dt_bauhaus_combobox_data_t, ptr %37, i32 0, i32 4
  store ptr null, ptr %38, align 8, !tbaa !199
  %39 = load ptr, ptr %3, align 8, !tbaa !17
  %40 = call i64 @gtk_widget_get_type() #14
  %41 = call ptr @g_type_check_instance_cast(ptr noundef %39, i64 noundef %40)
  call void @gtk_widget_set_name(ptr noundef %41, ptr noundef @.str.48)
  %42 = load ptr, ptr %3, align 8, !tbaa !17
  %43 = call i64 @gtk_widget_get_type() #14
  %44 = call ptr @g_type_check_instance_cast(ptr noundef %42, i64 noundef %43)
  call void @llvm.lifetime.end.p0(i64 8, ptr %5) #13
  ret ptr %44
}