; Function Attrs: nounwind uwtable
define ptr @dt_bauhaus_combobox_from_widget(ptr noundef initializes((40, 44), (48, 56), (408, 436), (440, 452), (456, 464)) %0, ptr noundef %1) local_unnamed_addr #0 {
  %3 = getelementptr inbounds nuw i8, ptr %0, i64 40
  store i32 2, ptr %3, align 8, !tbaa !105
  %4 = getelementptr inbounds nuw i8, ptr %0, i64 48
  store ptr %1, ptr %4, align 8, !tbaa !161
  %5 = getelementptr inbounds nuw i8, ptr %0, i64 408
  %6 = tail call ptr @g_ptr_array_new_full(i32 noundef 4, ptr noundef nonnull @_free_combobox_entry) #19
  %7 = getelementptr inbounds nuw i8, ptr %0, i64 440
  store ptr %6, ptr %7, align 8, !tbaa !128
  %8 = getelementptr inbounds nuw i8, ptr %0, i64 412
  store i32 -1, ptr %8, align 4, !tbaa !169
  store i32 -1, ptr %5, align 8, !tbaa !137
  %9 = getelementptr inbounds nuw i8, ptr %0, i64 416
  store i32 0, ptr %9, align 8, !tbaa !150
  %10 = getelementptr inbounds nuw i8, ptr %0, i64 420
  store i32 1, ptr %10, align 4, !tbaa !223
  %11 = getelementptr inbounds nuw i8, ptr %0, i64 432
  store i32 3, ptr %11, align 8, !tbaa !147
  %12 = getelementptr inbounds nuw i8, ptr %0, i64 448
  store i32 0, ptr %12, align 8, !tbaa !224
  %13 = getelementptr inbounds nuw i8, ptr %0, i64 456
  store ptr null, ptr %13, align 8, !tbaa !225
  %14 = getelementptr inbounds nuw i8, ptr %0, i64 424
  store ptr null, ptr %14, align 8, !tbaa !164
  %15 = tail call i64 @gtk_widget_get_type() #20
  %16 = tail call ptr @g_type_check_instance_cast(ptr noundef %0, i64 noundef %15) #19
  tail call void @gtk_widget_set_name(ptr noundef %16, ptr noundef nonnull @.str.48) #19
  %17 = tail call ptr @g_type_check_instance_cast(ptr noundef %0, i64 noundef %15) #19
  ret ptr %17
}